; Function Attrs: mustprogress nounwind uwtable
define internal fastcc void @_ZSt8_DestroyIPN12_GLOBAL__N_116OptMuxtreeWorker10portinfo_tES2_EvT_S4_RSaIT0_E(ptr noundef readonly %0, ptr noundef readnone %1) unnamed_addr #3 personality ptr @__gxx_personality_v0 {
  %.not4.i.i = icmp eq ptr %0, %1
  br i1 %.not4.i.i, label %_ZSt8_DestroyIPN12_GLOBAL__N_116OptMuxtreeWorker10portinfo_tEEvT_S4_.exit, label %.lr.ph.i.i

.lr.ph.i.i:                                       ; preds = %2, %_ZSt8_DestroyIN12_GLOBAL__N_116OptMuxtreeWorker10portinfo_tEEvPT_.exit.i.i
  %.05.i.i = phi ptr [ %15, %_ZSt8_DestroyIN12_GLOBAL__N_116OptMuxtreeWorker10portinfo_tEEvPT_.exit.i.i ], [ %0, %2 ]
  %3 = getelementptr inbounds i8, ptr %.05.i.i, i64 64
  %4 = getelementptr inbounds i8, ptr %.05.i.i, i64 88
  %5 = load ptr, ptr %4, align 8
  %.not.i.i.i.i.i.i.i.i = icmp eq ptr %5, null
  br i1 %.not.i.i.i.i.i.i.i.i, label %_ZNSt6vectorIN5Yosys7hashlib4poolIiNS1_8hash_opsIiEEE7entry_tESaIS6_EED2Ev.exit.i.i.i.i.i, label %6

6:                                                ; preds = %.lr.ph.i.i
  tail call void @_ZdlPv(ptr noundef nonnull %5) #18
  br label %_ZNSt6vectorIN5Yosys7hashlib4poolIiNS1_8hash_opsIiEEE7entry_tESaIS6_EED2Ev.exit.i.i.i.i.i

_ZNSt6vectorIN5Yosys7hashlib4poolIiNS1_8hash_opsIiEEE7entry_tESaIS6_EED2Ev.exit.i.i.i.i.i: ; preds = %6, %.lr.ph.i.i
  %7 = load ptr, ptr %3, align 8
  %.not.i.i.i1.i.i.i.i.i = icmp eq ptr %7, null
  br i1 %.not.i.i.i1.i.i.i.i.i, label %_ZN5Yosys7hashlib4poolIiNS0_8hash_opsIiEEED2Ev.exit.i.i.i.i, label %8

8:                                                ; preds = %_ZNSt6vectorIN5Yosys7hashlib4poolIiNS1_8hash_opsIiEEE7entry_tESaIS6_EED2Ev.exit.i.i.i.i.i
  tail call void @_ZdlPv(ptr noundef nonnull %7) #18
  br label %_ZN5Yosys7hashlib4poolIiNS0_8hash_opsIiEEED2Ev.exit.i.i.i.i

_ZN5Yosys7hashlib4poolIiNS0_8hash_opsIiEEED2Ev.exit.i.i.i.i: ; preds = %8, %_ZNSt6vectorIN5Yosys7hashlib4poolIiNS1_8hash_opsIiEEE7entry_tESaIS6_EED2Ev.exit.i.i.i.i.i
  %9 = getelementptr inbounds i8, ptr %.05.i.i, i64 8
  %10 = getelementptr inbounds i8, ptr %.05.i.i, i64 32
  %11 = load ptr, ptr %10, align 8
  %.not.i.i.i.i1.i.i.i.i = icmp eq ptr %11, null
  br i1 %.not.i.i.i.i1.i.i.i.i, label %_ZNSt6vectorIN5Yosys7hashlib4poolIiNS1_8hash_opsIiEEE7entry_tESaIS6_EED2Ev.exit.i2.i.i.i.i, label %12

12:                                               ; preds = %_ZN5Yosys7hashlib4poolIiNS0_8hash_opsIiEEED2Ev.exit.i.i.i.i
  tail call void @_ZdlPv(ptr noundef nonnull %11) #18
  br label %_ZNSt6vectorIN5Yosys7hashlib4poolIiNS1_8hash_opsIiEEE7entry_tESaIS6_EED2Ev.exit.i2.i.i.i.i

_ZNSt6vectorIN5Yosys7hashlib4poolIiNS1_8hash_opsIiEEE7entry_tESaIS6_EED2Ev.exit.i2.i.i.i.i: ; preds = %12, %_ZN5Yosys7hashlib4poolIiNS0_8hash_opsIiEEED2Ev.exit.i.i.i.i
  %13 = load ptr, ptr %9, align 8
  %.not.i.i.i1.i3.i.i.i.i = icmp eq ptr %13, null
  br i1 %.not.i.i.i1.i3.i.i.i.i, label %_ZSt8_DestroyIN12_GLOBAL__N_116OptMuxtreeWorker10portinfo_tEEvPT_.exit.i.i, label %14

14:                                               ; preds = %_ZNSt6vectorIN5Yosys7hashlib4poolIiNS1_8hash_opsIiEEE7entry_tESaIS6_EED2Ev.exit.i2.i.i.i.i
  tail call void @_ZdlPv(ptr noundef nonnull %13) #18
  br label %_ZSt8_DestroyIN12_GLOBAL__N_116OptMuxtreeWorker10portinfo_tEEvPT_.exit.i.i

_ZSt8_DestroyIN12_GLOBAL__N_116OptMuxtreeWorker10portinfo_tEEvPT_.exit.i.i: ; preds = %14, %_ZNSt6vectorIN5Yosys7hashlib4poolIiNS1_8hash_opsIiEEE7entry_tESaIS6_EED2Ev.exit.i2.i.i.i.i
  %15 = getelementptr inbounds i8, ptr %.05.i.i, i64 128
  %.not.i.i = icmp eq ptr %15, %1
  br i1 %.not.i.i, label %_ZSt8_DestroyIPN12_GLOBAL__N_116OptMuxtreeWorker10portinfo_tEEvT_S4_.exit, label %.lr.ph.i.i, !llvm.loop !105

_ZSt8_DestroyIPN12_GLOBAL__N_116OptMuxtreeWorker10portinfo_tEEvT_S4_.exit: ; preds = %_ZSt8_DestroyIN12_GLOBAL__N_116OptMuxtreeWorker10portinfo_tEEvPT_.exit.i.i, %2
  ret void
}